; Function Attrs: nounwind uwtable
define ptr @l_Lean_Widget_tagCodeInfos_go(ptr noundef %0, ptr noundef %1, ptr noundef %2) local_unnamed_addr #1 {
  tail call void @lean_inc_heartbeat() #8
  %4 = tail call noalias ptr @mi_malloc_small(i64 noundef 40) #8
  %5 = icmp eq ptr %4, null
  br i1 %5, label %6, label %lean_alloc_closure.exit

6:                                                ; preds = %3
  tail call void @lean_internal_panic_out_of_memory() #9
  unreachable

lean_alloc_closure.exit:                          ; preds = %3
  %7 = getelementptr inbounds nuw i8, ptr %4, i64 4
  store i32 1, ptr %4, align 4, !tbaa !4
  store i32 -184549336, ptr %7, align 4
  %8 = getelementptr inbounds nuw i8, ptr %4, i64 8
  store ptr @l_Lean_Widget_tagCodeInfos_go___lambda__1, ptr %8, align 8, !tbaa !10
  %9 = getelementptr inbounds nuw i8, ptr %4, i64 16
  store i16 4, ptr %9, align 8, !tbaa !12
  %10 = getelementptr inbounds nuw i8, ptr %4, i64 18
  store i16 2, ptr %10, align 2, !tbaa !12
  %11 = getelementptr inbounds nuw i8, ptr %4, i64 24
  store ptr %1, ptr %11, align 8, !tbaa !10
  %12 = getelementptr inbounds nuw i8, ptr %4, i64 32
  store ptr %0, ptr %12, align 8, !tbaa !10
  %13 = tail call ptr @l_Lean_Widget_TaggedText_rewrite___rarg(ptr noundef nonnull %4, ptr noundef %2) #8
  ret ptr %13
}